target datalayout = "e-m:e-p270:32:32-p271:32:32-p272:64:64-i64:64-i128:128-f80:128-n8:16:32:64-S128"
target triple = "x86_64-pc-linux-gnu"

%struct.packed_git = type { %struct.hashmap_entry, ptr, %struct.list_head, ptr, i64, ptr, i64, i32, i64, %struct.oidset, i32, i64, i32, i32, i8, [32 x i8], ptr, ptr, ptr, i64, ptr, i64, ptr, [0 x i8] }
%struct.hashmap_entry = type { ptr, i32 }
%struct.list_head = type { ptr, ptr }
%struct.oidset = type { %struct.kh_oid_set }
%struct.kh_oid_set = type { i32, i32, i32, i32, ptr, ptr, ptr }

@.str = private unnamed_addr constant [29 x i8] c"packfile %s index not opened\00", align 1
@.str.1 = private unnamed_addr constant [36 x i8] c"Packfile index for %s hash mismatch\00", align 1

; Function Attrs: inlinehint nounwind uwtable
define internal i32 @const_error() #3 {
  ret i32 -1
}

; Function Attrs: nounwind uwtable
define dso_local i32 @verify_pack_index(ptr noundef %0) #0 {
  %2 = alloca i32, align 4
  %3 = alloca ptr, align 8
  %4 = alloca i32, align 4
  %5 = alloca i32, align 4
  store ptr %0, ptr %3, align 8, !tbaa !4
  call void @llvm.lifetime.start.p0(i64 4, ptr %4) #8
  store i32 0, ptr %4, align 4, !tbaa !13
  %6 = load ptr, ptr %3, align 8, !tbaa !4
  %7 = call i32 @open_pack_index(ptr noundef %6)
  %8 = icmp ne i32 %7, 0
  br i1 %8, label %9, label %15

9:                                                ; preds = %1
  %10 = load ptr, ptr %3, align 8, !tbaa !4
  %11 = getelementptr inbounds nuw %struct.packed_git, ptr %10, i32 0, i32 23
  %12 = getelementptr inbounds [0 x i8], ptr %11, i64 0, i64 0
  %13 = call i32 (ptr, ...) @error(ptr noundef @.str, ptr noundef %12)
  %14 = call i32 @const_error()
  store i32 %14, ptr %2, align 4
  store i32 1, ptr %5, align 4
  br label %32

15:                                               ; preds = %1
  %16 = load ptr, ptr %3, align 8, !tbaa !4
  %17 = getelementptr inbounds nuw %struct.packed_git, ptr %16, i32 0, i32 5
  %18 = load ptr, ptr %17, align 8, !tbaa !15
  %19 = load ptr, ptr %3, align 8, !tbaa !4
  %20 = getelementptr inbounds nuw %struct.packed_git, ptr %19, i32 0, i32 6
  %21 = load i64, ptr %20, align 8, !tbaa !11
  %22 = call i32 @hashfile_checksum_valid(ptr noundef %18, i64 noundef %21)
  %23 = icmp ne i32 %22, 0
  br i1 %23, label %30, label %24

24:                                               ; preds = %15
  %25 = load ptr, ptr %3, align 8, !tbaa !4
  %26 = getelementptr inbounds nuw %struct.packed_git, ptr %25, i32 0, i32 23
  %27 = getelementptr inbounds [0 x i8], ptr %26, i64 0, i64 0
  %28 = call i32 (ptr, ...) @error(ptr noundef @.str.1, ptr noundef %27)
  %29 = call i32 @const_error()
  store i32 %29, ptr %4, align 4, !tbaa !13
  br label %30

30:                                               ; preds = %24, %15
  %31 = load i32, ptr %4, align 4, !tbaa !13
  store i32 %31, ptr %2, align 4
  store i32 1, ptr %5, align 4
  br label %32

32:                                               ; preds = %30, %9
  call void @llvm.lifetime.end.p0(i64 4, ptr %4) #8
  %33 = load i32, ptr %2, align 4
  ret i32 %33
}