; Function Attrs: nounwind uwtable
define dso_local range(i32 -1, 1) i32 @verify_pack_index(ptr noundef %0) local_unnamed_addr #0 {
  %2 = tail call i32 @open_pack_index(ptr noundef %0) #9
  %.not = icmp eq i32 %2, 0
  br i1 %.not, label %3, label %.sink.split

3:                                                ; preds = %1
  %4 = getelementptr inbounds nuw i8, ptr %0, i64 56
  %5 = load ptr, ptr %4, align 8, !tbaa !10
  %6 = getelementptr inbounds nuw i8, ptr %0, i64 64
  %7 = load i64, ptr %6, align 8, !tbaa !4
  %8 = tail call i32 @hashfile_checksum_valid(ptr noundef %5, i64 noundef %7) #9
  %.not7 = icmp eq i32 %8, 0
  br i1 %.not7, label %.sink.split, label %11

.sink.split:                                      ; preds = %3, %1
  %.str.1.sink = phi ptr [ @.str, %1 ], [ @.str.1, %3 ]
  %9 = getelementptr inbounds nuw i8, ptr %0, i64 248
  %10 = tail call i32 (ptr, ...) @error(ptr noundef nonnull %.str.1.sink, ptr noundef nonnull %9) #9
  br label %11

11:                                               ; preds = %.sink.split, %3
  %.06 = phi i32 [ 0, %3 ], [ -1, %.sink.split ]
  ret i32 %.06
}